; Function Attrs: mustprogress uwtable
define noundef zeroext i1 @_ZNK32pxrInternal_v0_24__pxrReserved__7UsdPrim10SetPayloadERKNSt7__cxx1112basic_stringIcSt11char_traitsIcESaIcEEERKNS_7SdfPathE(ptr nocapture noundef nonnull readonly align 8 dereferenceable(32) %0, ptr noundef nonnull align 8 dereferenceable(32) %1, ptr noundef nonnull align 4 dereferenceable(8) %2) local_unnamed_addr #0 align 2 personality ptr @__gxx_personality_v0 {
  %4 = alloca %"class.pxrInternal_v0_24__pxrReserved__::SdfPayload", align 8
  %5 = alloca %"class.pxrInternal_v0_24__pxrReserved__::SdfLayerOffset", align 8
  call void @_ZN32pxrInternal_v0_24__pxrReserved__14SdfLayerOffsetC1Edd(ptr noundef nonnull align 8 dereferenceable(16) %5, double noundef 0.000000e+00, double noundef 1.000000e+00)
  call void @_ZN32pxrInternal_v0_24__pxrReserved__10SdfPayloadC1ERKNSt7__cxx1112basic_stringIcSt11char_traitsIcESaIcEEERKNS_7SdfPathERKNS_14SdfLayerOffsetE(ptr noundef nonnull align 8 dereferenceable(56) %4, ptr noundef nonnull align 8 dereferenceable(32) %1, ptr noundef nonnull align 4 dereferenceable(8) %2, ptr noundef nonnull align 8 dereferenceable(16) %5)
  %6 = invoke noundef zeroext i1 @_ZNK32pxrInternal_v0_24__pxrReserved__7UsdPrim10SetPayloadERKNS_10SdfPayloadE(ptr noundef nonnull align 8 dereferenceable(32) %0, ptr noundef nonnull align 8 dereferenceable(56) %4)
          to label %7 unwind label %27

7:                                                ; preds = %3
  %8 = getelementptr inbounds nuw i8, ptr %4, i64 32
  %9 = load i32, ptr %8, align 8
  %.not.i.i.i = icmp eq i32 %9, 0
  br i1 %.not.i.i.i, label %_ZN32pxrInternal_v0_24__pxrReserved__10SdfPayloadD2Ev.exit, label %10

10:                                               ; preds = %7
  %11 = and i32 %9, 255
  %12 = lshr i32 %9, 8
  %13 = zext nneg i32 %11 to i64
  %14 = getelementptr inbounds [257 x ptr], ptr @_ZN32pxrInternal_v0_24__pxrReserved__8Sdf_PoolINS_15Sdf_PathPrimTagELj24ELj8ELj16384EE13_regionStartsE, i64 0, i64 %13
  %15 = load ptr, ptr %14, align 8
  %16 = mul nuw nsw i32 %12, 24
  %17 = zext nneg i32 %16 to i64
  %18 = getelementptr inbounds i8, ptr %15, i64 %17
  %19 = getelementptr inbounds nuw i8, ptr %18, i64 8
  %20 = atomicrmw sub ptr %19, i32 1 seq_cst, align 4
  %21 = and i32 %20, 2147483647
  %22 = icmp eq i32 %21, 1
  br i1 %22, label %23, label %_ZN32pxrInternal_v0_24__pxrReserved__10SdfPayloadD2Ev.exit

23:                                               ; preds = %10
  invoke void @_ZNK32pxrInternal_v0_24__pxrReserved__12Sdf_PathNode8_DestroyEv(ptr noundef nonnull align 8 dereferenceable(16) %18)
          to label %_ZN32pxrInternal_v0_24__pxrReserved__10SdfPayloadD2Ev.exit unwind label %24

24:                                               ; preds = %23
  %25 = landingpad { ptr, i32 }
          catch ptr null
  %26 = extractvalue { ptr, i32 } %25, 0
  call void @__clang_call_terminate(ptr %26) #23
  unreachable

_ZN32pxrInternal_v0_24__pxrReserved__10SdfPayloadD2Ev.exit: ; preds = %7, %10, %23
  call void @_ZNSt7__cxx1112basic_stringIcSt11char_traitsIcESaIcEED1Ev(ptr noundef nonnull align 8 dereferenceable(32) %4) #18
  ret i1 %6

27:                                               ; preds = %3
  %28 = landingpad { ptr, i32 }
          cleanup
  call void @_ZN32pxrInternal_v0_24__pxrReserved__10SdfPayloadD2Ev(ptr noundef nonnull align 8 dereferenceable(56) %4) #18
  resume { ptr, i32 } %28
}